target datalayout = "e-m:e-p270:32:32-p271:32:32-p272:64:64-i64:64-i128:128-f80:128-n8:16:32:64-S128"
target triple = "x86_64-pc-linux-gnu"

%struct.tok_state = type { ptr, ptr, ptr, i32, ptr, ptr, ptr, ptr, i32, ptr, i32, i32, [100 x i32], i32, i32, ptr, ptr, i32, i32, i32, i32, i32, [200 x i8], [200 x i32], [200 x i32], ptr, [100 x i32], i32, i32, ptr, i32, ptr, ptr, ptr, ptr, ptr, ptr, ptr, ptr, i32, i32, ptr, i32, [150 x %struct._tokenizer_mode], i32, i32, i32, i32 }
%struct._tokenizer_mode = type { i32, i32, i32, i8, i32, i32, ptr, ptr, i32, i64, i64, i64, i64, ptr, i32, i32 }

; Function Attrs: nounwind uwtable
define hidden ptr @_PyTokenizer_new_string(ptr noundef %0, i64 noundef %1, ptr noundef %2) #0 {
  %4 = alloca ptr, align 8
  %5 = alloca ptr, align 8
  %6 = alloca i64, align 8
  %7 = alloca ptr, align 8
  %8 = alloca ptr, align 8
  %9 = alloca i32, align 4
  store ptr %0, ptr %5, align 8, !tbaa !9
  store i64 %1, ptr %6, align 8, !tbaa !22
  store ptr %2, ptr %7, align 8, !tbaa !4
  call void @llvm.lifetime.start.p0(i64 8, ptr %8) #8
  %10 = load i64, ptr %6, align 8, !tbaa !22
  %11 = add i64 %10, 1
  %12 = call ptr @PyMem_Malloc(i64 noundef %11)
  store ptr %12, ptr %8, align 8, !tbaa !9
  %13 = load ptr, ptr %8, align 8, !tbaa !9
  %14 = icmp ne ptr %13, null
  br i1 %14, label %18, label %15

15:                                               ; preds = %3
  %16 = load ptr, ptr %7, align 8, !tbaa !4
  %17 = getelementptr inbounds nuw %struct.tok_state, ptr %16, i32 0, i32 8
  store i32 15, ptr %17, align 8, !tbaa !15
  store ptr null, ptr %4, align 8
  store i32 1, ptr %9, align 4
  br label %26

18:                                               ; preds = %3
  %19 = load ptr, ptr %8, align 8, !tbaa !9
  %20 = load ptr, ptr %5, align 8, !tbaa !9
  %21 = load i64, ptr %6, align 8, !tbaa !22
  call void @llvm.memcpy.p0.p0.i64(ptr align 1 %19, ptr align 1 %20, i64 %21, i1 false)
  %22 = load ptr, ptr %8, align 8, !tbaa !9
  %23 = load i64, ptr %6, align 8, !tbaa !22
  %24 = getelementptr i8, ptr %22, i64 %23
  store i8 0, ptr %24, align 1, !tbaa !34
  %25 = load ptr, ptr %8, align 8, !tbaa !9
  store ptr %25, ptr %4, align 8
  store i32 1, ptr %9, align 4
  br label %26

26:                                               ; preds = %18, %15
  call void @llvm.lifetime.end.p0(i64 8, ptr %8) #8
  %27 = load ptr, ptr %4, align 8
  ret ptr %27
}