; Function Attrs: nounwind uwtable
define hidden ptr @_PyTokenizer_new_string(ptr noundef readonly captures(none) %0, i64 noundef %1, ptr noundef writeonly captures(none) %2) local_unnamed_addr #0 {
  %4 = add i64 %1, 1
  %5 = tail call ptr @PyMem_Malloc(i64 noundef %4) #9
  %.not = icmp eq ptr %5, null
  br i1 %.not, label %6, label %8

6:                                                ; preds = %3
  %7 = getelementptr inbounds nuw i8, ptr %2, i64 64
  store i32 15, ptr %7, align 8, !tbaa !4
  br label %10

8:                                                ; preds = %3
  tail call void @llvm.memcpy.p0.p0.i64(ptr nonnull align 1 %5, ptr align 1 %0, i64 %1, i1 false)
  %9 = getelementptr i8, ptr %5, i64 %1
  store i8 0, ptr %9, align 1, !tbaa !22
  br label %10

10:                                               ; preds = %8, %6
  ret ptr %5
}